(dp1
S'Nu_c'
p2
(dp3
S'h'
(lp4
F0.024654000000000009
aF0.012326999999999991
aF0.0061640000000000028
aF0.0030820000000000014
aF0.0015410000000000146
aF0.00076999999999999291
aF0.00038499999999999646
aF0.00019299999999999873
aF9.5999999999984986e-05
aF4.7999999999992493e-05
asS'dchi2dxdx'
p5
(lp6
F6624779.0948591027
aF6624782.8788758898
aF6624786.8397902641
aF6624693.1693141339
aF6624863.2974280417
aF6624884.4661835451
aF6625562.4894603267
aF6625305.3773298543
aF6624348.9583378918
aF6618489.583352684
assS'bu_T'
p7
(dp8
S'h'
(lp9
F0.038893499999999998
aF0.019446499999999999
aF0.0097234999999999995
aF0.0048615000000000012
aF0.0024309999999999991
aF0.0012154999999999978
aF0.0006075000000000004
aF0.00030399999999999872
aF0.00015199999999999936
aF7.5999999999999679e-05
asg5
(lp10
F2338629.7356283674
aF2127619.7920218389
aF2088523.7288213526
aF2079208.6005006626
aF2077109.8865081186
aF2074854.8037729484
aF2070042.1683692355
aF2126785.4051247207
aF2076134.0027688649
aF2073753.4626037495
assS'au_T'
p11
(dp12
S'h'
(lp13
F0.04335300000000003
aF0.021677000000000002
aF0.010837999999999959
aF0.0054190000000000071
aF0.0027100000000000457
aF0.0013549999999999951
aF0.00067699999999998317
aF0.00033900000000003372
aF0.00016900000000003024
aF8.5000000000001741e-05
asg5
(lp14
F257230.78026097312
aF257183.00457720374
aF257174.39894984712
aF257168.11607991919
aF257178.95998148364
aF257172.9687777787
aF257260.61410072513
aF257342.00015580712
aF257028.81551745682
aF256885.81316108257
assS'bd_c'
p15
(dp16
S'h'
(lp17
F0.19843649999999999
aF0.049609
aF0.0124025
aF0.0031004999999999991
aF0.0031005
aF0.0015500000000000002
asg5
(lp18
F386.16161219378273
aF549.4083489382333
aF567.07100711147791
aF432.01463545410974
aF561.00528025937501
aF77.419354832525471
assS'BLNY'
p19
(dp20
S'h'
(lp21
F0.00071700000000000062
aF0.00035849999999999944
aF0.00017950000000000084
aF8.9500000000001037e-05
aF4.4500000000001136e-05
aF2.2499999999999951e-05
aF1.1499999999999358e-05
aF5.5000000000002963e-06
aF2.5000000000007655e-06
aF1.4999999999997654e-06
asg5
(lp22
F195857275.68572772
aF195859230.60014895
aF195356429.57457486
aF193261633.53203788
aF184770104.78481418
aF151681975.30856851
aF27735349.716914333
aF-555008264.46331334
aF-3440000000.0074978
aF-9904444444.4523277
assS'ad_T'
p23
(dp24
S'h'
(lp25
F0.31738
aF0.15869
aF0.079339999999999966
aF0.039669999999999983
aF0.019839999999999969
aF0.0099200000000000399
aF0.0049599999999999644
aF0.0024800000000000377
aF0.0012400000000000189
aF0.00062000000000006494
asg5
(lp26
F47.175905508505757
aF47.862969498907781
aF48.117698260466135
aF48.270680810226587
aF48.718884137939881
aF50.789379553709402
aF50.484521333876692
aF32.030437056297316
aF39.021852286606673
aF10.40582723699306
assS'Nd_T'
p27
(dp28
S'h'
(lp29
F0.12515350000000003
aF0.062579500000000066
aF0.03129000000000004
aF0.015642500000000059
aF0.0078214999999999812
aF0.0039110000000000533
aF0.0019534999999999414
aF0.00097949999999996651
aF0.00049000000000004595
aF0.00024250000000003435
asg5
(lp30
F183.58206161785105
aF200.73878773190884
aF183.88887918582495
aF185.374991484529
aF187.67205851689423
aF195.54232792294019
aF216.97190683736974
aF5073.8974919649299
aF174.92711420793833
aF119.03496815409167
assS'au_c'
p31
(dp32
S'h'
(lp33
F0.0075899999999999856
aF0.0038000000000000256
aF0.0019000000000000128
aF0.00095000000000000639
aF0.00046999999999997044
aF0.00024000000000001798
aF0.00012000000000000899
aF6.0000000000060005e-05
aF2.9999999999974492e-05
aF9.9999999999544897e-06
asg5
(lp34
F209334.57274237668
aF209257.756232688
aF209327.14681443496
aF209761.77285315804
aF209927.56903638024
aF294131.94444391102
aF208263.8888920015
aF208611.11112085593
aF207777.77788513619
aF200000.00177060571
assS'bu_c'
p35
(dp36
S'h'
(lp37
F0.13456400000000002
aF0.033640999999999997
aF0.0084099999999999991
aF0.0021024999999999998
aF0.00052550000000000003
asg5
(lp38
F1725702.8935755529
aF2350171.541710882
aF2958576.2660102579
aF4784507.8830055073
aF11937074.110923707
assS'Nu_T'
p39
(dp40
S'h'
(lp41
F0.086552000000000018
aF0.043275999999999981
aF0.021637999999999991
aF0.010819000000000023
aF0.0054089999999999971
aF0.0027050000000000129
aF0.0013520000000000199
aF0.00067600000000000993
aF0.00033800000000000496
aF0.00016899999999997473
asg5
(lp42
F622844.73274911032
aF622844.98891468183
aF622846.71092399
aF622747.64706570108
aF622855.35009217251
aF622853.413784976
aF622851.63772280677
aF622888.29172686092
aF622816.07786923379
aF622317.14575550205
assS'Nd_c'
p43
(dp44
S'h'
(lp45
F0.0071589999999999987
aF0.0035789999999999988
aF0.0017899999999999999
aF0.0008950000000000069
aF0.00044700000000000295
aF0.00022400000000000198
aF0.00011200000000000099
aF5.6000000000000494e-05
aF2.8000000000000247e-05
aF1.4000000000000123e-05
asg5
(lp46
F4825.8501089959318
aF4822.2997756269478
aF4762.6478574719049
aF5061.0155737915629
aF5710.4534840211481
aF99728.954083604753
aF6457.2704190492459
aF3507.6530886206356
aF2551.0204017225128
aF0
assS'ad_c'
p47
(dp48
S'h'
(lp49
F0.040116000000000013
aF0.020057999999999993
aF0.010028999999999982
aF0.0050145000000000051
aF0.0025070000000000092
aF0.0012540000000000051
aF0.00062700000000001643
aF0.00031299999999997996
aF0.00015699999999999048
aF7.799999999999474e-05
asg5
(lp50
F266.24789804661464
aF262.28901784627828
aF268.48055486067818
aF281.36571258083478
aF272.869789894051
aF354.20943257279066
aF12130.878159900883
aF122.4877253999168
aF-283.98718390256749
aF3.7372398988044495e-05
assS'bd_T'
p51
(dp52
S'h'
(lp53
F2.64818
aF1.32409
aF0.66204499999999999
aF0.33101999999999965
aF0.16551000000000027
aF0.082759999999999945
aF0.041380000000000194
aF0.020690000000000097
aF0.010340000000000238
aF0.0051699999999996749
asg5
(lp54
F6.2212590469873907
aF5.6646468379955124
aF5.4705621818609602
aF5.4492095753564307
aF5.4186823274590594
aF5.1810297281574336
aF5.6479443725225789
aF5.1556253671388532
aF5.2751890291746637
aF178.64558586808198
ass.