(dp1
S'Nu_c'
p2
(dp3
S'h'
(lp4
F0.024654000000000009
aF0.012326999999999991
aF0.0061640000000000028
aF0.0030820000000000014
aF0.0015410000000000146
aF0.00076999999999999291
aF0.00038499999999999646
aF0.00019299999999999873
aF9.5999999999984986e-05
aF4.7999999999992493e-05
asS'dchi2dxdx'
p5
(lp6
F39628.701349990311
aF39625.973567464614
aF39619.689970981599
aF39579.105572470435
aF39438.560379177608
aF38821.049080759083
aF38630.460447750964
aF35866.73467234485
aF39279.513863744804
aF38194.444348024685
assS'bu_T'
p7
(dp8
S'h'
(lp9
F0.038893499999999998
aF0.019446499999999999
aF0.0097234999999999995
aF0.0048615000000000012
aF0.0024309999999999991
aF0.0012154999999999978
aF0.0006075000000000004
aF0.00030399999999999872
aF0.00015199999999999936
aF7.5999999999999679e-05
asg5
(lp10
F121801.56945007926
aF113134.02584367407
aF111538.88643134867
aF111135.59894800001
aF111089.77165062829
aF110579.09110013036
aF110069.9419119915
aF109526.48891623713
aF110889.88919226352
aF110457.06366922651
assS'au_T'
p11
(dp12
S'h'
(lp13
F0.04335300000000003
aF0.021677000000000002
aF0.010837999999999959
aF0.0054190000000000071
aF0.0027100000000000457
aF0.0013549999999999951
aF0.00067699999999998317
aF0.00033900000000003372
aF0.00016900000000003024
aF8.5000000000001741e-05
asg5
(lp14
F45176.656380543151
aF45085.996711386797
aF45067.783653102517
aF45047.564390126237
aF44981.141324290882
aF44982.502961490929
aF44740.786639820239
aF44326.102277832586
aF44956.409087251275
aF44567.474030330239
assS'bd_c'
p15
(dp16
S'h'
(lp17
F0.19843649999999999
aF0.049609
aF0.0124025
aF0.0031004999999999991
aF0.0031005
aF0.0015500000000000002
asg5
(lp18
F71252.913018956853
aF113209.28743586791
aF147734.32978806723
aF238604.71027541335
aF12310.90875180946
aF12322.580645044507
assS'BLNY'
p19
(dp20
S'h'
(lp21
F0.00071700000000000062
aF0.00035849999999999944
aF0.00017950000000000084
aF8.9500000000001037e-05
aF4.4500000000001136e-05
aF2.2499999999999951e-05
aF1.1499999999999358e-05
aF5.5000000000002963e-06
aF2.5000000000007655e-06
aF1.4999999999997654e-06
asg5
(lp22
F38803759.660291724
aF38799554.162800245
aF38773845.640546411
aF38602041.134781234
aF37950763.7923925
aF35494320.987192869
aF26729678.637650393
aF-9388429.758427538
aF-139360000.03005224
aF-608888888.96866214
assS'ad_T'
p23
(dp24
S'h'
(lp25
F0.31738
aF0.15869
aF0.079339999999999966
aF0.039669999999999983
aF0.019839999999999969
aF0.0099200000000000399
aF0.0049599999999999644
aF0.0024800000000000377
aF0.0012400000000000189
aF0.00062000000000006494
asg5
(lp26
F166.0501172081016
aF167.85455365994432
aF168.11972023541864
aF168.13910120224156
aF168.8381040254888
aF163.27190101246893
aF162.1439255910004
aF155.27445365323845
aF165.19250768304585
aF158.68886565989558
assS'Nd_T'
p27
(dp28
S'h'
(lp29
F0.12515350000000003
aF0.062579500000000066
aF0.03129000000000004
aF0.015642500000000059
aF0.0078214999999999812
aF0.0039110000000000533
aF0.0019534999999999414
aF0.00097949999999996651
aF0.00049000000000004595
aF0.00024250000000003435
asg5
(lp30
F2719.9281069612321
aF2719.3919629136039
aF2719.0088983957394
aF2726.445629735239
aF2745.7888425586361
aF2688.2330262919172
aF2731.0159571531785
aF2455.6496485624257
aF2403.1653469123785
aF4472.3137366687188
assS'au_c'
p31
(dp32
S'h'
(lp33
F0.0075899999999999856
aF0.0038000000000000256
aF0.0019000000000000128
aF0.00095000000000000639
aF0.00046999999999997044
aF0.00024000000000001798
aF0.00012000000000000899
aF6.0000000000060005e-05
aF2.9999999999974492e-05
aF9.9999999999544897e-06
asg5
(lp34
F698.59967608571776
aF687.18836564017431
aF626.03878109445611
aF694.73684173686866
aF697.14803005242391
aF711.8055517845828
aF763.88887906522109
aF1111.1110451442485
aF2222.2219639780124
aF9999.9988379750703
assS'bu_c'
p35
(dp36
S'h'
(lp37
F0.13456400000000002
aF0.033640999999999997
aF0.0084099999999999991
aF0.0021024999999999998
aF0.00052550000000000003
asg5
(lp38
F16726.844467737497
aF27433.392150664276
aF48031.58857653202
aF123140.4208510731
aF420445.02947198192
assS'Nu_T'
p39
(dp40
S'h'
(lp41
F0.086552000000000018
aF0.043275999999999981
aF0.021637999999999991
aF0.010819000000000023
aF0.0054089999999999971
aF0.0027050000000000129
aF0.0013520000000000199
aF0.00067600000000000993
aF0.00033800000000000496
aF0.00016899999999997473
asg5
(lp42
F24018.26292376687
aF24017.902903681177
aF24018.822910514355
aF24015.871199673089
aF24010.809480203661
aF23951.947683638147
aF23938.346871436061
aF23710.216728701489
aF23983.754069389157
aF23878.715726687973
assS'Nd_c'
p43
(dp44
S'h'
(lp45
F0.0071589999999999987
aF0.0035789999999999988
aF0.0017899999999999999
aF0.0008950000000000069
aF0.00044700000000000295
aF0.00022400000000000198
aF0.00011200000000000099
aF5.6000000000000494e-05
aF2.8000000000000247e-05
aF1.4000000000000123e-05
asg5
(lp46
F460029.61369882344
aF460013.51680399297
aF459910.11516488594
aF459337.72354138806
aF459003.34819651989
aF457130.89922928222
aF459661.98979544506
aF458864.79588365462
aF455357.14272252959
aF438775.50909627223
assS'ad_c'
p47
(dp48
S'h'
(lp49
F0.040116000000000013
aF0.020057999999999993
aF0.010028999999999982
aF0.0050145000000000051
aF0.0025070000000000092
aF0.0012540000000000051
aF0.00062700000000001643
aF0.00031299999999997996
aF0.00015699999999999048
aF7.799999999999474e-05
asg5
(lp50
F6392.4170956174421
aF6388.9056167263079
aF6377.7951508676833
aF6380.6187502399216
aF6335.9887885886983
aF6335.0706764569586
aF6013.293345735603
aF5532.3622755006099
aF6207.1483519581943
aF5752.7941811228429
assS'bd_T'
p51
(dp52
S'h'
(lp53
F2.64818
aF1.32409
aF0.66204499999999999
aF0.33101999999999965
aF0.16551000000000027
aF0.082759999999999945
aF0.041380000000000194
aF0.020690000000000097
aF0.010340000000000238
aF0.0051699999999996749
asg5
(lp54
F12.067341203472758
aF9.0878654963234133
aF8.3157933210589281
aF8.122310469604539
aF8.0218854065624239
aF8.0143460472995169
aF7.863671903061749
aF7.7089097005268972
aF7.1832361215757139
aF7.8566645063797891
ass.