(dp1
S'Nu_c'
p2
(dp3
S'h'
(lp4
F0.024654000000000009
aF0.012326999999999991
aF0.0061640000000000028
aF0.0030820000000000014
aF0.0015410000000000146
aF0.00076999999999999291
aF0.00038499999999999646
aF0.00019299999999999873
aF9.5999999999984986e-05
aF4.7999999999992493e-05
asS'dchi2dxdx'
p5
(lp6
F3239100.3124354039
aF3239133.5262313257
aF3238971.202868931
aF3238730.6968809715
aF3237496.3205583841
aF3232895.9352337648
aF3213789.8465174916
aF3189052.0550900935
aF3239474.826395825
aF3248697.916705831
assS'bu_T'
p7
(dp8
S'h'
(lp9
F0.038893499999999998
aF0.019446499999999999
aF0.0097234999999999995
aF0.0048615000000000012
aF0.0024309999999999991
aF0.0012154999999999978
aF0.0006075000000000004
aF0.00030399999999999872
aF0.00015199999999999936
aF7.5999999999999679e-05
asg5
(lp10
F8855971.9720735811
aF8242852.485487028
aF8129764.879675854
aF8102936.4576385953
aF8096062.4295974243
aF8091100.1307836967
aF8078833.5111518595
aF8074489.2659281986
aF8095005.1939083673
aF8099376.7313131355
assS'au_T'
p11
(dp12
S'h'
(lp13
F0.04335300000000003
aF0.021677000000000002
aF0.010837999999999959
aF0.0054190000000000071
aF0.0027100000000000457
aF0.0013549999999999951
aF0.00067699999999998317
aF0.00033900000000003372
aF0.00016900000000003024
aF8.5000000000001741e-05
asg5
(lp14
F3813061.6222158349
aF3804157.2285381993
aF3801950.6080609486
aF3801307.5929317232
aF3800777.4948596936
aF3799183.0176604888
aF3793109.3166702329
aF3785200.2680099821
aF3801617.5904199383
aF3804705.8823610349
assS'bd_c'
p15
(dp16
S'h'
(lp17
F0.19843649999999999
aF0.049609
aF0.0124025
aF0.0031004999999999991
aF0.0031005
aF0.0015500000000000002
asg5
(lp18
F4747490.3960070815
aF7148370.4705490237
aF8205754.3700773297
aF9456869.6503503211
aF814791.98139019159
aF814476.17065560725
assS'BLNY'
p19
(dp20
S'h'
(lp21
F0.00071700000000000062
aF0.00035849999999999944
aF0.00017950000000000084
aF8.9500000000001037e-05
aF4.4500000000001136e-05
aF2.2499999999999951e-05
aF1.1499999999999358e-05
aF5.5000000000002963e-06
aF2.5000000000007655e-06
aF1.4999999999997654e-06
asg5
(lp22
F5384641316.9703979
aF5385266123.1810226
aF5384101457.9340162
aF5378285696.4512968
aF5353343769.7258234
aF5257568395.0619106
aF4908446124.7645578
aF3295371900.8268256
aF-4438719999.9955654
aF-21904888888.868279
assS'ad_T'
p23
(dp24
S'h'
(lp25
F0.31738
aF0.15869
aF0.079339999999999966
aF0.039669999999999983
aF0.019839999999999969
aF0.0099200000000000399
aF0.0049599999999999644
aF0.0024800000000000377
aF0.0012400000000000189
aF0.00062000000000006494
asg5
(lp26
F28582.179592054348
aF29641.630210255287
aF29917.883161237794
aF29983.871858385006
aF29996.755800435905
aF29969.69709287228
aF29859.805866285667
aF29401.502341312185
aF27600.806451613153
aF25202.913631879495
assS'Nd_T'
p27
(dp28
S'h'
(lp29
F0.12515350000000003
aF0.062579500000000066
aF0.03129000000000004
aF0.015642500000000059
aF0.0078214999999999812
aF0.0039110000000000533
aF0.0019534999999999414
aF0.00097949999999996651
aF0.00049000000000004595
aF0.00024250000000003435
asg5
(lp30
F222297.36817089774
aF222303.51457539
aF222291.71409716632
aF222413.08152640983
aF222242.0657421973
aF222111.3720448722
aF221876.83450829706
aF218997.87918803538
aF218417.32611425241
aF244633.86119765422
assS'au_c'
p31
(dp32
S'h'
(lp33
F0.0075899999999999856
aF0.0038000000000000256
aF0.0019000000000000128
aF0.00095000000000000639
aF0.00046999999999997044
aF0.00024000000000001798
aF0.00012000000000000899
aF6.0000000000060005e-05
aF2.9999999999974492e-05
aF9.9999999999544897e-06
asg5
(lp34
F65242.07533315722
aF65039.335180058129
aF64783.102493098537
aF65341.828254893633
aF65595.29198743889
aF65694.444445352245
aF66875.000004835063
aF65277.777786524894
aF64444.444471325514
aF60000.000417494877
assS'bu_c'
p35
(dp36
S'h'
(lp37
F0.13456400000000002
aF0.033640999999999997
aF0.0084099999999999991
aF0.0021024999999999998
aF0.00052550000000000003
asg5
(lp38
F1170246.6606133445
aF1650297.9202269234
aF2002905.0264322117
aF2905248.4656027937
aF6360638.8189039724
assS'Nu_T'
p39
(dp40
S'h'
(lp41
F0.086552000000000018
aF0.043275999999999981
aF0.021637999999999991
aF0.010819000000000023
aF0.0054089999999999971
aF0.0027050000000000129
aF0.0013520000000000199
aF0.00067600000000000993
aF0.00033800000000000496
aF0.00016899999999997473
asg5
(lp42
F1718532.2124101773
aF1718517.1071848064
aF1718501.1424231594
aF1718484.282216663
aF1718393.0386422481
aF1718015.1769332404
aF1716465.9632015571
aF1714457.6520430169
aF1718619.7962262058
aF1719547.6348905149
assS'Nd_c'
p43
(dp44
S'h'
(lp45
F0.0071589999999999987
aF0.0035789999999999988
aF0.0017899999999999999
aF0.0008950000000000069
aF0.00044700000000000295
aF0.00022400000000000198
aF0.00011200000000000099
aF5.6000000000000494e-05
aF2.8000000000000247e-05
aF1.4000000000000123e-05
asg5
(lp46
F32915665.054303724
aF32917468.958543308
aF32914905.901813325
aF32912465.903061233
aF32897006.641342442
aF32878806.600765549
aF32768335.459187541
aF32921556.122473836
aF32947704.081682123
aF33040816.326635011
assS'ad_c'
p47
(dp48
S'h'
(lp49
F0.040116000000000013
aF0.020057999999999993
aF0.010028999999999982
aF0.0050145000000000051
aF0.0025070000000000092
aF0.0012540000000000051
aF0.00062700000000001643
aF0.00031299999999997996
aF0.00015699999999999048
aF7.799999999999474e-05
asg5
(lp50
F453218.39859640837
aF453088.12589864951
aF453038.23816705059
aF452966.46505471418
aF454285.87748481164
aF451877.75513891847
aF452978.53885129996
aF453255.62167671305
aF454136.07043073745
aF457100.59172051429
assS'bd_T'
p51
(dp52
S'h'
(lp53
F2.64818
aF1.32409
aF0.66204499999999999
aF0.33101999999999965
aF0.16551000000000027
aF0.082759999999999945
aF0.041380000000000194
aF0.020690000000000097
aF0.010340000000000238
aF0.0051699999999996749
asg5
(lp54
F1473.2198273494137
aF1291.083100748474
aF1242.7761198833432
aF1230.6396513244767
aF1227.4052688755828
aF1226.3210910396631
aF1224.4008717141787
aF1217.9820363716899
aF1191.6034704016186
aF1157.2492695198007
ass.