(dp1
S'Nu_c'
p2
(dp3
S'h'
(lp4
F0.024654000000000009
aF0.012326999999999991
aF0.0061640000000000028
aF0.0030820000000000014
aF0.0015410000000000146
aF0.00076999999999999291
aF0.00038499999999999646
aF0.00019299999999999873
aF9.5999999999984986e-05
aF4.7999999999992493e-05
asS'dchi2dxdx'
p5
(lp6
F649239039.22359717
aF649246156.80614185
aF649256288.87100995
aF649162660.58472633
aF649233209.42895949
aF649199876.87638235
aF649134552.20105791
aF649292168.91729724
aF649277994.79188168
aF649236545.13910985
assS'bu_T'
p7
(dp8
S'h'
(lp9
F0.038893499999999998
aF0.019446499999999999
aF0.0097234999999999995
aF0.0048615000000000012
aF0.0024309999999999991
aF0.0012154999999999978
aF0.0006075000000000004
aF0.00030399999999999872
aF0.00015199999999999936
aF7.5999999999999679e-05
asg5
(lp10
F329082356.8018353
aF307169312.48953253
aF303136173.80603516
aF302182102.40804911
aF301941950.10593516
aF301405755.6642319
aF301761810.02218455
aF301871753.80886692
aF301882228.18559885
aF301865477.83935124
assS'au_T'
p11
(dp12
S'h'
(lp13
F0.04335300000000003
aF0.021677000000000002
aF0.010837999999999959
aF0.0054190000000000071
aF0.0027100000000000457
aF0.0013549999999999951
aF0.00067699999999998317
aF0.00033900000000003372
aF0.00016900000000003024
aF8.5000000000001741e-05
asg5
(lp14
F202653152.85979295
aF201934241.96333283
aF201756341.1950497
aF201718891.86792597
aF201693267.92935145
aF201680947.1548605
aF201660601.88206428
aF201693441.58156806
aF201703826.89674816
aF201690795.84774491
assS'bd_c'
p15
(dp16
S'h'
(lp17
F0.19843649999999999
aF0.049609
aF0.0124025
aF0.0031004999999999991
aF0.0031005
aF0.0015500000000000002
asg5
(lp18
F4437199.8000738807
aF6906108.8972187759
aF8171050.6034958167
aF10164249.249351176
aF787649.74910149828
aF788804.16233093222
assS'BLNY'
p19
(dp20
S'h'
(lp21
F0.00071700000000000062
aF0.00035849999999999944
aF0.00017950000000000084
aF8.9500000000001037e-05
aF4.4500000000001136e-05
aF2.2499999999999951e-05
aF1.1499999999999358e-05
aF5.5000000000002963e-06
aF2.5000000000007655e-06
aF1.4999999999997654e-06
asg5
(lp22
F85390293011.521194
aF85408012954.955536
aF85406555597.798737
aF85370943853.186127
aF85220189370.024704
aF84648908641.975723
aF82464226843.110184
aF72524429752.057053
aF23020000000.000893
aF-88089333333.328156
assS'ad_T'
p23
(dp24
S'h'
(lp25
F0.31738
aF0.15869
aF0.079339999999999966
aF0.039669999999999983
aF0.019839999999999969
aF0.0099200000000000399
aF0.0049599999999999644
aF0.0024800000000000377
aF0.0012400000000000189
aF0.00062000000000006494
asg5
(lp26
F238689.97674342795
aF248435.2403928375
aF250880.95739942777
aF251456.09712190123
aF251533.51814516241
aF251628.72536745403
aF251306.78492456116
aF251802.32180019683
aF251748.17898026193
aF256316.33714901289
assS'Nd_T'
p27
(dp28
S'h'
(lp29
F0.12515350000000003
aF0.062579500000000066
aF0.03129000000000004
aF0.015642500000000059
aF0.0078214999999999812
aF0.0039110000000000533
aF0.0019534999999999414
aF0.00097949999999996651
aF0.00049000000000004595
aF0.00024250000000003435
asg5
(lp30
F1048060.1592788596
aF1047897.251351573
aF1047728.4194160501
aF1047630.9462601105
aF1048120.7234639412
aF1047934.151856545
aF1047182.1526981042
aF1033861.8556362913
aF1038229.904206865
aF1125407.5884792847
assS'au_c'
p31
(dp32
S'h'
(lp33
F0.0075899999999999856
aF0.0038000000000000256
aF0.0019000000000000128
aF0.00095000000000000639
aF0.00046999999999997044
aF0.00024000000000001798
aF0.00012000000000000899
aF6.0000000000060005e-05
aF2.9999999999974492e-05
aF9.9999999999544897e-06
asg5
(lp34
F13644509.053414416
aF13647233.448753288
aF13645135.734071853
aF13580801.10803316
aF13648963.3318264
aF13654583.333331918
aF13676736.111111
aF13649166.666663541
aF13661111.111254679
aF13760000.000627503
assS'bu_c'
p35
(dp36
S'h'
(lp37
F0.13456400000000002
aF0.033640999999999997
aF0.0084099999999999991
aF0.0021024999999999998
aF0.00052550000000000003
asg5
(lp38
F224721833.19180998
aF306605040.71159124
aF336789143.87633777
aF361128070.5688405
aF433022208.01900458
assS'Nu_T'
p39
(dp40
S'h'
(lp41
F0.086552000000000018
aF0.043275999999999981
aF0.021637999999999991
aF0.010819000000000023
aF0.0054089999999999971
aF0.0027050000000000129
aF0.0013520000000000199
aF0.00067600000000000993
aF0.00033800000000000496
aF0.00016899999999997473
asg5
(lp42
F61039767.592396282
aF61041303.798635758
aF61041288.509862885
aF61040372.373144761
aF61039241.00124006
aF61038827.11894463
aF61031079.312697396
aF61040562.305239737
aF61042864.395502843
aF61039529.428262286
assS'Nd_c'
p43
(dp44
S'h'
(lp45
F0.0071589999999999987
aF0.0035789999999999988
aF0.0017899999999999999
aF0.0008950000000000069
aF0.00044700000000000295
aF0.00022400000000000198
aF0.00011200000000000099
aF5.6000000000000494e-05
aF2.8000000000000247e-05
aF1.4000000000000123e-05
asg5
(lp46
F27494223.880960174
aF27490190.480450809
aF27498309.977840941
aF27497021.940638274
aF27449038.832084723
aF27311204.559950512
aF27672114.158173483
aF27633290.816344138
aF27508928.571433894
aF27556122.449010771
assS'ad_c'
p47
(dp48
S'h'
(lp49
F0.040116000000000013
aF0.020057999999999993
aF0.010028999999999982
aF0.0050145000000000051
aF0.0025070000000000092
aF0.0012540000000000051
aF0.00062700000000001643
aF0.00031299999999997996
aF0.00015699999999999048
aF7.799999999999474e-05
asg5
(lp50
F314543.45452828321
aF314327.32551918167
aF314776.59845775279
aF314523.99567826628
aF312798.99329344742
aF308175.56069387041
aF315318.89023734099
aF318662.0257436767
aF331737.59584758227
aF315746.21959874005
assS'bd_T'
p51
(dp52
S'h'
(lp53
F2.64818
aF1.32409
aF0.66204499999999999
aF0.33101999999999965
aF0.16551000000000027
aF0.082759999999999945
aF0.041380000000000194
aF0.020690000000000097
aF0.010340000000000238
aF0.0051699999999996749
asg5
(lp54
F9643.2755489582541
aF9131.8733884353787
aF8991.3379895106973
aF8954.7573810970443
aF8944.2190830829331
aF8941.8278957877101
aF8938.4609418745313
aF8920.649856415881
aF8948.5725188843589
aF8944.0642899637623
ass.