(dp1
S'Nu_c'
p2
(dp3
S'h'
(lp4
F0.024654000000000009
aF0.012326999999999991
aF0.0061640000000000028
aF0.0030820000000000014
aF0.0015410000000000146
aF0.00076999999999999291
aF0.00038499999999999646
aF0.00019299999999999873
aF9.5999999999984986e-05
aF4.7999999999992493e-05
asS'dchi2dxdx'
p5
(lp6
F195521234.16970554
aF195510306.80946219
aF195522428.77569643
aF195523201.22155336
aF195523121.21080318
aF195528819.36245933
aF195527144.54377192
aF195610754.6511364
aF195792209.20146763
aF196628472.22233629
assS'bu_T'
p7
(dp8
S'h'
(lp9
F0.038893499999999998
aF0.019446499999999999
aF0.0097234999999999995
aF0.0048615000000000012
aF0.0024309999999999991
aF0.0012154999999999978
aF0.0006075000000000004
aF0.00030399999999999872
aF0.00015199999999999936
aF7.5999999999999679e-05
asg5
(lp10
F95339227.112607315
aF88792030.283227563
aF87585103.808059603
aF87300363.692507252
aF87230919.998287663
aF87217636.043150008
aF87233219.868245035
aF87244146.035320938
aF87314490.997233078
aF87648199.445985436
assS'au_T'
p11
(dp12
S'h'
(lp13
F0.04335300000000003
aF0.021677000000000002
aF0.010837999999999959
aF0.0054190000000000071
aF0.0027100000000000457
aF0.0013549999999999951
aF0.00067699999999998317
aF0.00033900000000003372
aF0.00016900000000003024
aF8.5000000000001741e-05
asg5
(lp14
F42535411.912928157
aF42432575.118714049
aF42408646.245512202
aF42402283.443520688
aF42401772.987839155
aF42404346.890701704
aF42409075.140348949
aF42428659.687952138
aF42488148.174074322
aF42400276.816619165
assS'bd_c'
p15
(dp16
S'h'
(lp17
F0.19843649999999999
aF0.049609
aF0.0124025
aF0.0031004999999999991
aF0.0031005
aF0.0015500000000000002
asg5
(lp18
F246996713.55589822
aF375824942.99276292
aF419965702.54719323
aF429781616.91385698
aF43717880.191668652
aF43719147.554630585
assS'BLNY'
p19
(dp20
S'h'
(lp21
F0.00071700000000000062
aF0.00035849999999999944
aF0.00017950000000000084
aF8.9500000000001037e-05
aF4.4500000000001136e-05
aF2.2499999999999951e-05
aF1.1499999999999358e-05
aF5.5000000000002963e-06
aF2.5000000000007655e-06
aF1.4999999999997654e-06
asg5
(lp22
F401553023527.05396
aF401639682171.76526
aF401670561587.81763
aF401697604444.29645
aF401789722509.76361
aF402141688888.89075
aF403505852552.03088
aF409585520661.1156
aF439491839999.75873
aF506788888889.08643
assS'ad_T'
p23
(dp24
S'h'
(lp25
F0.31738
aF0.15869
aF0.079339999999999966
aF0.039669999999999983
aF0.019839999999999969
aF0.0099200000000000399
aF0.0049599999999999644
aF0.0024800000000000377
aF0.0012400000000000189
aF0.00062000000000006494
asg5
(lp26
F2685886.2182659344
aF2686060.6787421056
aF2687325.6944152783
aF2687745.8988762177
aF2687888.2521868586
aF2687845.9327848381
aF2687773.4375000419
aF2686841.8314255248
aF2689684.5733610215
aF2694448.4911545273
assS'Nd_T'
p27
(dp28
S'h'
(lp29
F0.12515350000000003
aF0.062579500000000066
aF0.03129000000000004
aF0.015642500000000059
aF0.0078214999999999812
aF0.0039110000000000533
aF0.0019534999999999414
aF0.00097949999999996651
aF0.00049000000000004595
aF0.00024250000000003435
asg5
(lp30
F60817243.677872732
aF60817348.029979557
aF60817139.924750432
aF60817380.702639259
aF60817282.342432663
aF60817046.779986285
aF60814213.546610579
aF60822205.910292186
aF60841874.219064236
aF60783131.044729307
assS'au_c'
p31
(dp32
S'h'
(lp33
F0.0075899999999999856
aF0.0038000000000000256
aF0.0019000000000000128
aF0.00095000000000000639
aF0.00046999999999997044
aF0.00024000000000001798
aF0.00012000000000000899
aF6.0000000000060005e-05
aF2.9999999999974492e-05
aF9.9999999999544897e-06
asg5
(lp34
F4501510.3605222367
aF4501960.9418281969
aF4502206.6481993897
aF4504603.8781163441
aF4513363.5129026314
aF4546059.0277786134
aF4678680.5555610163
aF4502222.2222464625
aF4503333.3334661704
aF4510000.0000230791
assS'bu_c'
p35
(dp36
S'h'
(lp37
F0.13456400000000002
aF0.033640999999999997
aF0.0084099999999999991
aF0.0021024999999999998
aF0.00052550000000000003
asg5
(lp38
F62873414.576865345
aF83973113.043985799
aF89951726.909106866
aF88938605.617852062
aF78145940.479865938
assS'Nu_T'
p39
(dp40
S'h'
(lp41
F0.086552000000000018
aF0.043275999999999981
aF0.021637999999999991
aF0.010819000000000023
aF0.0054089999999999971
aF0.0027050000000000129
aF0.0013520000000000199
aF0.00067600000000000993
aF0.00033800000000000496
aF0.00016899999999997473
asg5
(lp42
F18382422.515150279
aF18381522.460798029
aF18382623.294093762
aF18382458.188375138
aF18382560.942693222
aF18383003.748107839
aF18382976.895941526
aF18389672.542977892
aF18404178.775252618
aF18471692.167649601
assS'Nd_c'
p43
(dp44
S'h'
(lp45
F0.0071589999999999987
aF0.0035789999999999988
aF0.0017899999999999999
aF0.0008950000000000069
aF0.00044700000000000295
aF0.00022400000000000198
aF0.00011200000000000099
aF5.6000000000000494e-05
aF2.8000000000000247e-05
aF1.4000000000000123e-05
asg5
(lp46
F1595768974.3598807
aF1595798661.9972262
aF1595799341.1566432
aF1595767793.7642148
aF1595771812.0805163
aF1595808932.5573728
aF1596008689.4132411
aF1596629783.1632681
aF1599038265.3062434
aF1595801020.4086273
assS'ad_c'
p47
(dp48
S'h'
(lp49
F0.040116000000000013
aF0.020057999999999993
aF0.010028999999999982
aF0.0050145000000000051
aF0.0025070000000000092
aF0.0012540000000000051
aF0.00062700000000001643
aF0.00031299999999997996
aF0.00015699999999999048
aF7.799999999999474e-05
asg5
(lp50
F19416448.77166516
aF19411867.509638358
aF19410794.308232188
aF19410104.793217991
aF19409138.258110516
aF19411646.685947783
aF19417842.489360388
aF19439741.14260887
aF19513448.821456682
aF19410256.410285428
assS'bd_T'
p51
(dp52
S'h'
(lp53
F2.64818
aF1.32409
aF0.66204499999999999
aF0.33101999999999965
aF0.16551000000000027
aF0.082759999999999945
aF0.041380000000000194
aF0.020690000000000097
aF0.010340000000000238
aF0.0051699999999996749
asg5
(lp54
F216509.91515060162
aF147059.22254092718
aF129386.05955258964
aF124935.65823523636
aF123823.74374187272
aF123544.84284453178
aF123473.35672325437
aF123451.29055324389
aF123466.56615123911
aF123453.6026548263
ass.