(dp1
S'Nu_c'
p2
(dp3
S'h'
(lp4
F0.024654000000000009
aF0.012326999999999991
aF0.0061640000000000028
aF0.0030820000000000014
aF0.0015410000000000146
aF0.00076999999999999291
aF0.00038499999999999646
aF0.00019299999999999873
aF9.5999999999984986e-05
aF4.7999999999992493e-05
asS'dchi2dxdx'
p5
(lp6
F153516068.05067825
aF153546002.56501082
aF153513139.76487777
aF153508859.71631542
aF153509096.5902338
aF153518254.34306222
aF153530065.77837929
aF153708072.69994247
aF153911241.31949446
aF153680989.58336014
assS'bu_T'
p7
(dp8
S'h'
(lp9
F0.038893499999999998
aF0.019446499999999999
aF0.0097234999999999995
aF0.0048615000000000012
aF0.0024309999999999991
aF0.0012154999999999978
aF0.0006075000000000004
aF0.00030399999999999872
aF0.00015199999999999936
aF7.5999999999999679e-05
asg5
(lp10
F14175168.06430652
aF13058088.640193436
aF12860438.420099471
aF12812739.438023077
aF12800947.449482331
aF12800474.333902946
aF12808735.795694957
aF12864752.856649181
aF12933344.875346286
aF12861149.58447301
assS'au_T'
p11
(dp12
S'h'
(lp13
F0.04335300000000003
aF0.021677000000000002
aF0.010837999999999959
aF0.0054190000000000071
aF0.0027100000000000457
aF0.0013549999999999951
aF0.00067699999999998317
aF0.00033900000000003372
aF0.00016900000000003024
aF8.5000000000001741e-05
asg5
(lp14
F2823524.2186271236
aF2822607.8468286716
aF2822260.9641273539
aF2822423.2120067398
aF2822096.6490106802
aF2821761.686251584
aF2828601.2885941127
aF2848234.8743912419
aF2951017.1212490792
aF2820346.0207527522
assS'bd_c'
p15
(dp16
S'h'
(lp17
F0.19843649999999999
aF0.049609
aF0.0124025
aF0.0031004999999999991
aF0.0031005
aF0.0015500000000000002
asg5
(lp18
F7548554.1728902273
aF10832448.047263231
aF11690561.330199784
aF10968160.869850479
aF1244365.5729066203
aF1244732.9864724535
assS'BLNY'
p19
(dp20
S'h'
(lp21
F0.00071700000000000062
aF0.00035849999999999944
aF0.00017950000000000084
aF8.9500000000001037e-05
aF4.4500000000001136e-05
aF2.2499999999999951e-05
aF1.1499999999999358e-05
aF5.5000000000002963e-06
aF2.5000000000007655e-06
aF1.4999999999997654e-06
asg5
(lp22
F28756478240.149025
aF28767034104.989689
aF28774324376.750381
aF28791558565.587154
aF28856935740.435356
aF29122581728.394882
aF30103841209.833038
aF34626710743.798119
aF57198399999.962463
aF107700000000.00571
assS'ad_T'
p23
(dp24
S'h'
(lp25
F0.31738
aF0.15869
aF0.079339999999999966
aF0.039669999999999983
aF0.019839999999999969
aF0.0099200000000000399
aF0.0049599999999999644
aF0.0024800000000000377
aF0.0012400000000000189
aF0.00062000000000006494
asg5
(lp26
F1583840.319772495
aF1602883.4880800492
aF1607748.3268983243
aF1608935.555997683
aF1609207.6125130118
aF1609333.7526827394
aF1609543.0378512125
aF1610561.4268990054
aF1611666.2330904373
aF1608389.6982308412
assS'Nd_T'
p27
(dp28
S'h'
(lp29
F0.12515350000000003
aF0.062579500000000066
aF0.03129000000000004
aF0.015642500000000059
aF0.0078214999999999812
aF0.0039110000000000533
aF0.0019534999999999414
aF0.00097949999999996651
aF0.00049000000000004595
aF0.00024250000000003435
asg5
(lp30
F10535703.815117287
aF10537301.554539908
aF10535627.968587525
aF10535457.792147253
aF10535274.11458762
aF10536056.508136749
aF10530404.465900874
aF10556626.254241241
aF10600037.484379096
aF10378539.696032668
assS'au_c'
p31
(dp32
S'h'
(lp33
F0.0075899999999999856
aF0.0038000000000000256
aF0.0019000000000000128
aF0.00095000000000000639
aF0.00046999999999997044
aF0.00024000000000001798
aF0.00012000000000000899
aF6.0000000000060005e-05
aF2.9999999999974492e-05
aF9.9999999999544897e-06
asg5
(lp34
F3347678.2952397442
aF3348299.9307478806
aF3349363.7119112988
aF3675543.4903045478
aF3336034.4047080507
aF3357517.3611088875
aF3335416.6666610334
aF3346666.6666738051
aF3361111.1110941907
aF3590000.0000637448
assS'bu_c'
p35
(dp36
S'h'
(lp37
F0.13456400000000002
aF0.033640999999999997
aF0.0084099999999999991
aF0.0021024999999999998
aF0.00052550000000000003
asg5
(lp38
F52266317.769706823
aF70851192.359301761
aF75041187.236755982
aF68864093.111507341
aF38056203.099580757
assS'Nu_T'
p39
(dp40
S'h'
(lp41
F0.086552000000000018
aF0.043275999999999981
aF0.021637999999999991
aF0.010819000000000023
aF0.0054089999999999971
aF0.0027050000000000129
aF0.0013520000000000199
aF0.00067600000000000993
aF0.00033800000000000496
aF0.00016899999999997473
asg5
(lp42
F3212651.9412110001
aF3211191.8509867722
aF3212748.7236071909
aF3212897.522298025
aF3212945.3519621338
aF3212618.65307278
aF3213670.4115751288
aF3226596.1450928184
aF3241115.5071598855
aF3225902.4543962856
assS'Nd_c'
p43
(dp44
S'h'
(lp45
F0.0071589999999999987
aF0.0035789999999999988
aF0.0017899999999999999
aF0.0008950000000000069
aF0.00044700000000000295
aF0.00022400000000000198
aF0.00011200000000000099
aF5.6000000000000494e-05
aF2.8000000000000247e-05
aF1.4000000000000123e-05
asg5
(lp46
F61534937.360882767
aF61534088.475656025
aF61539291.844823793
aF61546441.12231113
aF94154172.23448281
aF61657884.247448094
aF62041613.520403661
aF62580357.142842829
aF61519132.653043598
aF61612244.897851482
assS'ad_c'
p47
(dp48
S'h'
(lp49
F0.040116000000000013
aF0.020057999999999993
aF0.010028999999999982
aF0.0050145000000000051
aF0.0025070000000000092
aF0.0012540000000000051
aF0.00062700000000001643
aF0.00031299999999997996
aF0.00015699999999999048
aF7.799999999999474e-05
asg5
(lp50
F1043303.9945201883
aF1043956.0204114822
aF1043883.2878718952
aF1043864.6859196599
aF1051700.1538094427
aF1044305.4315503996
aF1059865.8455620089
aF1109105.9416754807
aF1059150.4726369302
aF1042406.3116214664
assS'bd_T'
p51
(dp52
S'h'
(lp53
F2.64818
aF1.32409
aF0.66204499999999999
aF0.33101999999999965
aF0.16551000000000027
aF0.082759999999999945
aF0.041380000000000194
aF0.020690000000000097
aF0.010340000000000238
aF0.0051699999999996749
asg5
(lp54
F104622.37727718809
aF121274.74434253684
aF125908.24147280707
aF127086.78030680676
aF127384.87915632364
aF127457.43849633295
aF127477.84155667538
aF127485.7134046945
aF127567.15577520362
aF127746.85826952981
ass.